target datalayout = "e-m:e-p270:32:32-p271:32:32-p272:64:64-i64:64-i128:128-f80:128-n8:16:32:64-S128"
target triple = "x86_64-pc-linux-gnu"

%struct.ImVec2 = type { float, float }
%struct.ImGuiStyle = type { float, float, %struct.ImVec2, float, float, %struct.ImVec2, %struct.ImVec2, i32, float, float, float, float, %struct.ImVec2, float, float, %struct.ImVec2, %struct.ImVec2, %struct.ImVec2, %struct.ImVec2, float, float, float, float, float, float, float, float, float, float, float, float, float, %struct.ImVec2, i32, %struct.ImVec2, %struct.ImVec2, float, %struct.ImVec2, %struct.ImVec2, %struct.ImVec2, %struct.ImVec2, float, i8, i8, i8, float, float, [56 x %struct.ImVec4], float, float, float, i32, i32 }
%struct.ImVec4 = type { float, float, float, float }
%struct.ImGuiIO = type { i32, i32, %struct.ImVec2, float, float, ptr, ptr, ptr, ptr, float, i8, ptr, %struct.ImVec2, i8, i8, i8, i8, i8, i8, i8, i8, i8, i8, float, float, float, float, float, float, i8, i8, i8, i8, i8, i8, i8, i8, i8, i8, ptr, ptr, ptr, ptr, ptr, i8, i8, i8, i8, i8, i8, i8, float, i32, i32, i32, i32, %struct.ImVec2, ptr, %struct.ImVec2, [5 x i8], float, float, i32, i8, i8, i8, i8, i32, [154 x %struct.ImGuiKeyData], i8, %struct.ImVec2, [5 x %struct.ImVec2], [5 x double], [5 x i8], [5 x i8], [5 x i16], [5 x i16], [5 x i8], [5 x i8], [5 x i8], i8, i8, [5 x float], [5 x float], [5 x float], float, i8, i8, i8, i8, i16, %struct.ImVector }
%struct.ImGuiKeyData = type { i8, float, float, float }
%struct.ImVector = type { i32, i32, ptr }
%struct.ImGuiContext = type { i8, i8, %struct.ImGuiIO, %struct.ImGuiPlatformIO, %struct.ImGuiStyle, ptr, float, float, float, float, %struct.ImDrawListSharedData, double, i32, i32, i32, i8, i8, i8, i8, i8, ptr, [16 x i8], %struct.ImVector.1, %struct.ImVector.1, i32, i32, %struct.ImVector.2, %struct.ImVector.2, %struct.ImVector.2, %struct.ImVector.3, %struct.ImGuiStorage, i32, %struct.ImVec2, i32, ptr, ptr, ptr, ptr, ptr, ptr, %struct.ImVec2, i32, i32, float, %struct.ImVec2, %struct.ImVec2, i32, i32, i32, i32, i32, float, float, i8, i8, i8, i32, i32, float, i8, i8, i8, i8, i8, i8, i8, i8, %struct.ImVec2, ptr, i32, i32, i8, i8, ptr, i32, float, double, double, double, %struct.ImBitArray, [154 x %struct.ImGuiKeyOwnerData], %struct.ImGuiKeyRoutingTable, i32, i8, i32, i32, i32, i32, %struct.ImGuiNextItemData, %struct.ImGuiLastItemData, %struct.ImGuiNextWindowData, i8, i32, %struct.ImVector.6, %struct.ImVector.7, %struct.ImVector.8, %struct.ImVector.9, %struct.ImVector.10, %struct.ImVector.11, %struct.ImVector.12, %struct.ImVector.12, %struct.ImVector.13, %struct.ImVector.14, ptr, i32, i32, i32, i32, i32, i32, i32, %struct.ImVector.9, i32, float, i32, i32, i32, i64, i8, i8, i8, i8, i8, i8, i8, %struct.ImGuiNavItemData, i8, i8, i8, i32, i32, i32, i32, i32, i32, %struct.ImRect, %struct.ImRect, i32, i32, i32, %struct.ImGuiNavItemData, %struct.ImGuiNavItemData, %struct.ImGuiNavItemData, %struct.ImGuiNavItemData, i32, i32, i32, i32, i8, i8, i32, i32, ptr, ptr, ptr, float, float, i8, i32, %struct.ImVec2, %struct.ImVec2, float, i8, i8, i8, i32, i32, i32, [4 x i8], %struct.ImGuiPayload, %struct.ImRect, %struct.ImRect, i32, i32, float, i32, i32, i32, i32, %struct.ImVector.15, [16 x i8], i32, %struct.ImVector.16, ptr, i32, i32, %struct.ImVector.17, %struct.ImPool, %struct.ImVector.19, %struct.ImVector.20, ptr, %struct.ImPool.21, %struct.ImVector.23, %struct.ImVector.24, %struct.ImGuiBoxSelectState, ptr, i32, %struct.ImVector.25, %struct.ImPool.26, i32, i32, float, float, i32, i32, i32, float, %struct.ImVec2, %struct.ImGuiInputTextState, %struct.ImGuiInputTextDeactivatedState, %struct.ImFont, i32, %struct.ImGuiDataTypeStorage, i32, i32, i32, i32, i32, float, float, i32, %struct.ImVec4, %struct.ImGuiComboPreviewData, %struct.ImRect, i8, i16, float, float, float, i8, i8, float, float, float, i16, i16, i16, ptr, %struct.ImVector.28, %struct.ImVector.30, %struct.ImGuiTypingSelectState, %struct.ImGuiPlatformImeData, %struct.ImGuiPlatformImeData, i8, float, %struct.ImGuiTextBuffer, %struct.ImVector.31, %struct.ImChunkStream, %struct.ImChunkStream.32, %struct.ImVector.33, i32, [10 x ptr], i8, i32, ptr, %struct.ImGuiTextBuffer, ptr, ptr, float, i8, i32, i32, i32, ptr, ptr, %struct.ImVec2, i8, i32, %struct.ImGuiErrorRecoveryState, ptr, i32, i32, %struct.ImGuiTextBuffer, %struct.ImGuiTextIndex, i32, i32, i8, i8, i8, i32, i8, i8, i8, i32, float, %struct.ImVec4, %struct.ImGuiMetricsConfig, %struct.ImGuiIDStackTool, %struct.ImGuiDebugAllocInfo, [60 x float], i32, i32, float, i32, i32, i32, %struct.ImVector.28, [64 x i8] }
%struct.ImGuiPlatformIO = type <{ ptr, ptr, ptr, ptr, ptr, ptr, ptr, i16, [6 x i8] }>
%struct.ImDrawListSharedData = type { %struct.ImVec2, ptr, float, float, float, float, %struct.ImVec4, i32, %struct.ImVector.0, [48 x %struct.ImVec2], float, [64 x i8], ptr }
%struct.ImVector.0 = type { i32, i32, ptr }
%struct.ImVector.1 = type { i32, i32, ptr }
%struct.ImVector.2 = type { i32, i32, ptr }
%struct.ImVector.3 = type { i32, i32, ptr }
%struct.ImGuiStorage = type { %struct.ImVector.4 }
%struct.ImVector.4 = type { i32, i32, ptr }
%struct.ImBitArray = type { [5 x i32] }
%struct.ImGuiKeyOwnerData = type <{ i32, i32, i8, i8, [2 x i8] }>
%struct.ImGuiKeyRoutingTable = type { [154 x i16], %struct.ImVector.5, %struct.ImVector.5 }
%struct.ImVector.5 = type { i32, i32, ptr }
%struct.ImGuiNextItemData = type <{ i32, i32, i32, [4 x i8], i64, float, i32, i32, i8, i8, %struct.ImGuiDataTypeStorage, [2 x i8], i32, [4 x i8] }>
%struct.ImGuiLastItemData = type { i32, i32, i32, %struct.ImRect, %struct.ImRect, %struct.ImRect, %struct.ImRect, i32 }
%struct.ImGuiNextWindowData = type { i32, i32, i32, i32, %struct.ImVec2, %struct.ImVec2, %struct.ImVec2, %struct.ImVec2, %struct.ImVec2, i32, i8, %struct.ImRect, ptr, ptr, float, %struct.ImVec2, i32 }
%struct.ImVector.6 = type { i32, i32, ptr }
%struct.ImVector.7 = type { i32, i32, ptr }
%struct.ImVector.8 = type { i32, i32, ptr }
%struct.ImVector.10 = type { i32, i32, ptr }
%struct.ImVector.11 = type { i32, i32, ptr }
%struct.ImVector.12 = type { i32, i32, ptr }
%struct.ImVector.13 = type { i32, i32, ptr }
%struct.ImVector.14 = type { i32, i32, ptr }
%struct.ImVector.9 = type { i32, i32, ptr }
%struct.ImGuiNavItemData = type { ptr, i32, i32, %struct.ImRect, i32, float, float, float, i64 }
%struct.ImGuiPayload = type <{ ptr, i32, i32, i32, i32, [33 x i8], i8, i8, [5 x i8] }>
%struct.ImVector.15 = type { i32, i32, ptr }
%struct.ImVector.16 = type { i32, i32, ptr }
%struct.ImVector.17 = type { i32, i32, ptr }
%struct.ImPool = type { %struct.ImVector.18, %struct.ImGuiStorage, i32, i32 }
%struct.ImVector.18 = type { i32, i32, ptr }
%struct.ImVector.19 = type { i32, i32, ptr }
%struct.ImVector.20 = type { i32, i32, ptr }
%struct.ImPool.21 = type { %struct.ImVector.22, %struct.ImGuiStorage, i32, i32 }
%struct.ImVector.22 = type { i32, i32, ptr }
%struct.ImVector.23 = type { i32, i32, ptr }
%struct.ImVector.24 = type { i32, i32, ptr }
%struct.ImGuiBoxSelectState = type <{ i32, i8, i8, i8, i8, i8, i16, i8, %struct.ImVec2, %struct.ImVec2, %struct.ImVec2, [4 x i8], ptr, i8, [3 x i8], %struct.ImRect, %struct.ImRect, %struct.ImRect, [4 x i8] }>
%struct.ImVector.25 = type { i32, i32, ptr }
%struct.ImPool.26 = type { %struct.ImVector.27, %struct.ImGuiStorage, i32, i32 }
%struct.ImVector.27 = type { i32, i32, ptr }
%struct.ImGuiInputTextState = type <{ ptr, ptr, i32, i32, %struct.ImVector.28, %struct.ImVector.28, %struct.ImVector.28, i32, %struct.ImVec2, float, i8, i8, i8, i8, i32, i8, [3 x i8], i32, i32, [4 x i8] }>
%struct.ImGuiInputTextDeactivatedState = type { i32, %struct.ImVector.28 }
%struct.ImFont = type <{ %struct.ImVector.19, float, float, %struct.ImVector, %struct.ImVector.29, ptr, ptr, ptr, i16, i16, i16, i16, float, float, i8, [3 x i8], float, float, float, i32, [2 x i8], [2 x i8] }>
%struct.ImVector.29 = type { i32, i32, ptr }
%struct.ImGuiDataTypeStorage = type { [8 x i8] }
%struct.ImGuiComboPreviewData = type { %struct.ImRect, %struct.ImVec2, %struct.ImVec2, %struct.ImVec2, float, i32 }
%struct.ImRect = type { %struct.ImVec2, %struct.ImVec2 }
%struct.ImVector.30 = type { i32, i32, ptr }
%struct.ImGuiTypingSelectState = type <{ %struct.ImGuiTypingSelectRequest, [64 x i8], i32, i32, float, i8, [3 x i8] }>
%struct.ImGuiTypingSelectRequest = type { i32, i32, ptr, i8, i8, i8 }
%struct.ImGuiPlatformImeData = type { i8, %struct.ImVec2, float }
%struct.ImVector.31 = type { i32, i32, ptr }
%struct.ImChunkStream = type { %struct.ImVector.28 }
%struct.ImChunkStream.32 = type { %struct.ImVector.28 }
%struct.ImVector.33 = type { i32, i32, ptr }
%struct.ImGuiErrorRecoveryState = type { i16, i16, i16, i16, i16, i16, i16, i16, i16, i16, i16 }
%struct.ImGuiTextBuffer = type { %struct.ImVector.28 }
%struct.ImGuiTextIndex = type <{ %struct.ImVector.10, i32, [4 x i8] }>
%struct.ImGuiMetricsConfig = type { i8, i8, i8, i8, i8, i8, i8, i8, i8, i32, i32, i32, i32 }
%struct.ImGuiIDStackTool = type { i32, i32, i32, %struct.ImVector.34, i8, float }
%struct.ImVector.34 = type { i32, i32, ptr }
%struct.ImGuiDebugAllocInfo = type { i32, i32, i16, [6 x %struct.ImGuiDebugAllocEntry] }
%struct.ImGuiDebugAllocEntry = type { i32, i16, i16 }
%struct.ImVector.28 = type { i32, i32, ptr }

@GImGui = dso_local global ptr null, align 8

; Function Attrs: mustprogress nounwind uwtable
define internal noundef i32 @_ZL17GetModForLRModKey8ImGuiKey(i32 noundef %0) #1 {
  %2 = alloca i32, align 4
  %3 = alloca i32, align 4
  store i32 %0, ptr %3, align 4, !tbaa !264
  %4 = load i32, ptr %3, align 4, !tbaa !264
  %5 = icmp eq i32 %4, 527
  br i1 %5, label %9, label %6

6:                                                ; preds = %1
  %7 = load i32, ptr %3, align 4, !tbaa !264
  %8 = icmp eq i32 %7, 531
  br i1 %8, label %9, label %10

9:                                                ; preds = %6, %1
  store i32 4096, ptr %2, align 4
  br label %32

10:                                               ; preds = %6
  %11 = load i32, ptr %3, align 4, !tbaa !264
  %12 = icmp eq i32 %11, 528
  br i1 %12, label %16, label %13

13:                                               ; preds = %10
  %14 = load i32, ptr %3, align 4, !tbaa !264
  %15 = icmp eq i32 %14, 532
  br i1 %15, label %16, label %17

16:                                               ; preds = %13, %10
  store i32 8192, ptr %2, align 4
  br label %32

17:                                               ; preds = %13
  %18 = load i32, ptr %3, align 4, !tbaa !264
  %19 = icmp eq i32 %18, 529
  br i1 %19, label %23, label %20

20:                                               ; preds = %17
  %21 = load i32, ptr %3, align 4, !tbaa !264
  %22 = icmp eq i32 %21, 533
  br i1 %22, label %23, label %24

23:                                               ; preds = %20, %17
  store i32 16384, ptr %2, align 4
  br label %32

24:                                               ; preds = %20
  %25 = load i32, ptr %3, align 4, !tbaa !264
  %26 = icmp eq i32 %25, 530
  br i1 %26, label %30, label %27

27:                                               ; preds = %24
  %28 = load i32, ptr %3, align 4, !tbaa !264
  %29 = icmp eq i32 %28, 534
  br i1 %29, label %30, label %31

30:                                               ; preds = %27, %24
  store i32 32768, ptr %2, align 4
  br label %32

31:                                               ; preds = %27
  store i32 0, ptr %2, align 4
  br label %32

32:                                               ; preds = %31, %30, %23, %16, %9
  %33 = load i32, ptr %2, align 4
  ret i32 %33
}

; Function Attrs: inlinehint mustprogress nounwind uwtable
define linkonce_odr dso_local noundef zeroext i1 @_ZN5ImGui10IsLRModKeyE8ImGuiKey(i32 noundef %0) #7 comdat {
  %2 = alloca i32, align 4
  store i32 %0, ptr %2, align 4, !tbaa !264
  %3 = load i32, ptr %2, align 4, !tbaa !264
  %4 = icmp sge i32 %3, 527
  br i1 %4, label %5, label %8

5:                                                ; preds = %1
  %6 = load i32, ptr %2, align 4, !tbaa !264
  %7 = icmp sle i32 %6, 534
  br label %8

8:                                                ; preds = %5, %1
  %9 = phi i1 [ false, %1 ], [ %7, %5 ]
  ret i1 %9
}

; Function Attrs: inlinehint mustprogress nounwind uwtable
define linkonce_odr dso_local noundef i32 @_ZN5ImGui25ConvertSingleModFlagToKeyE8ImGuiKey(i32 noundef %0) #7 comdat {
  %2 = alloca i32, align 4
  %3 = alloca i32, align 4
  store i32 %0, ptr %3, align 4, !tbaa !264
  %4 = load i32, ptr %3, align 4, !tbaa !264
  %5 = icmp eq i32 %4, 4096
  br i1 %5, label %6, label %7

6:                                                ; preds = %1
  store i32 662, ptr %2, align 4
  br label %21

7:                                                ; preds = %1
  %8 = load i32, ptr %3, align 4, !tbaa !264
  %9 = icmp eq i32 %8, 8192
  br i1 %9, label %10, label %11

10:                                               ; preds = %7
  store i32 663, ptr %2, align 4
  br label %21

11:                                               ; preds = %7
  %12 = load i32, ptr %3, align 4, !tbaa !264
  %13 = icmp eq i32 %12, 16384
  br i1 %13, label %14, label %15

14:                                               ; preds = %11
  store i32 664, ptr %2, align 4
  br label %21

15:                                               ; preds = %11
  %16 = load i32, ptr %3, align 4, !tbaa !264
  %17 = icmp eq i32 %16, 32768
  br i1 %17, label %18, label %19

18:                                               ; preds = %15
  store i32 665, ptr %2, align 4
  br label %21

19:                                               ; preds = %15
  %20 = load i32, ptr %3, align 4, !tbaa !264
  store i32 %20, ptr %2, align 4
  br label %21

21:                                               ; preds = %19, %18, %14, %10, %6
  %22 = load i32, ptr %2, align 4
  ret i32 %22
}

; Function Attrs: mustprogress uwtable
define dso_local noundef i32 @_ZN5ImGui13FixupKeyChordEi(i32 noundef %0) #0 {
  %2 = alloca i32, align 4
  %3 = alloca i32, align 4
  store i32 %0, ptr %2, align 4, !tbaa !117
  call void @llvm.lifetime.start.p0(i64 4, ptr %3) #16
  %4 = load i32, ptr %2, align 4, !tbaa !117
  %5 = and i32 %4, -61441
  store i32 %5, ptr %3, align 4, !tbaa !264
  %6 = load i32, ptr %3, align 4, !tbaa !264
  %7 = call noundef zeroext i1 @_ZN5ImGui10IsLRModKeyE8ImGuiKey(i32 noundef %6)
  br i1 %7, label %8, label %13

8:                                                ; preds = %1
  %9 = load i32, ptr %3, align 4, !tbaa !264
  %10 = call noundef i32 @_ZL17GetModForLRModKey8ImGuiKey(i32 noundef %9)
  %11 = load i32, ptr %2, align 4, !tbaa !117
  %12 = or i32 %11, %10
  store i32 %12, ptr %2, align 4, !tbaa !117
  br label %13

13:                                               ; preds = %8, %1
  %14 = load i32, ptr %2, align 4, !tbaa !117
  call void @llvm.lifetime.end.p0(i64 4, ptr %3) #16
  ret i32 %14
}

; Function Attrs: mustprogress uwtable
define dso_local noundef zeroext i1 @_ZN5ImGui17IsKeyChordPressedEiij(i32 noundef %0, i32 noundef %1, i32 noundef %2) #0 {
  %4 = alloca i1, align 1
  %5 = alloca i32, align 4
  %6 = alloca i32, align 4
  %7 = alloca i32, align 4
  %8 = alloca ptr, align 8
  %9 = alloca i32, align 4
  %10 = alloca i32, align 4
  %11 = alloca i32, align 4
  store i32 %0, ptr %5, align 4, !tbaa !117
  store i32 %1, ptr %6, align 4, !tbaa !117
  store i32 %2, ptr %7, align 4, !tbaa !117
  call void @llvm.lifetime.start.p0(i64 8, ptr %8) #16
  %12 = load ptr, ptr @GImGui, align 8, !tbaa !133
  store ptr %12, ptr %8, align 8, !tbaa !133
  %13 = load i32, ptr %5, align 4, !tbaa !117
  %14 = call noundef i32 @_ZN5ImGui13FixupKeyChordEi(i32 noundef %13)
  store i32 %14, ptr %5, align 4, !tbaa !117
  call void @llvm.lifetime.start.p0(i64 4, ptr %9) #16
  %15 = load i32, ptr %5, align 4, !tbaa !117
  %16 = and i32 %15, 61440
  store i32 %16, ptr %9, align 4, !tbaa !264
  %17 = load ptr, ptr %8, align 8, !tbaa !133
  %18 = getelementptr inbounds nuw %struct.ImGuiContext, ptr %17, i32 0, i32 2
  %19 = getelementptr inbounds nuw %struct.ImGuiIO, ptr %18, i32 0, i32 67
  %20 = load i32, ptr %19, align 8, !tbaa !1175
  %21 = load i32, ptr %9, align 4, !tbaa !264
  %22 = icmp ne i32 %20, %21
  br i1 %22, label %23, label %24

23:                                               ; preds = %3
  store i1 false, ptr %4, align 1
  store i32 1, ptr %10, align 4
  br label %41

24:                                               ; preds = %3
  call void @llvm.lifetime.start.p0(i64 4, ptr %11) #16
  %25 = load i32, ptr %5, align 4, !tbaa !117
  %26 = and i32 %25, -61441
  store i32 %26, ptr %11, align 4, !tbaa !264
  %27 = load i32, ptr %11, align 4, !tbaa !264
  %28 = icmp eq i32 %27, 0
  br i1 %28, label %29, label %32

29:                                               ; preds = %24
  %30 = load i32, ptr %9, align 4, !tbaa !264
  %31 = call noundef i32 @_ZN5ImGui25ConvertSingleModFlagToKeyE8ImGuiKey(i32 noundef %30)
  store i32 %31, ptr %11, align 4, !tbaa !264
  br label %32

32:                                               ; preds = %29, %24
  %33 = load i32, ptr %11, align 4, !tbaa !264
  %34 = load i32, ptr %6, align 4, !tbaa !117
  %35 = and i32 %34, 255
  %36 = load i32, ptr %7, align 4, !tbaa !117
  %37 = call noundef zeroext i1 @_ZN5ImGui12IsKeyPressedE8ImGuiKeyij(i32 noundef %33, i32 noundef %35, i32 noundef %36)
  br i1 %37, label %39, label %38

38:                                               ; preds = %32
  store i1 false, ptr %4, align 1
  store i32 1, ptr %10, align 4
  br label %40

39:                                               ; preds = %32
  store i1 true, ptr %4, align 1
  store i32 1, ptr %10, align 4
  br label %40

40:                                               ; preds = %39, %38
  call void @llvm.lifetime.end.p0(i64 4, ptr %11) #16
  br label %41

41:                                               ; preds = %40, %23
  call void @llvm.lifetime.end.p0(i64 4, ptr %9) #16
  call void @llvm.lifetime.end.p0(i64 8, ptr %8) #16
  %42 = load i1, ptr %4, align 1
  ret i1 %42
}