; Function Attrs: mustprogress nofree norecurse nosync nounwind willreturn memory(read, inaccessiblemem: none) uwtable
define dso_local noundef zeroext i1 @_ZN5ImGui17IsKeyChordPressedEiij(i32 noundef %0, i32 noundef %1, i32 noundef %2) local_unnamed_addr #31 {
  %4 = load ptr, ptr @GImGui, align 8, !tbaa !211
  %5 = and i32 %0, -61441
  %6 = add i32 %5, -527
  %7 = icmp ult i32 %6, 8
  br i1 %7, label %8, label %_ZN5ImGui13FixupKeyChordEi.exit

8:                                                ; preds = %3
  switch i32 %5, label %9 [
    i32 531, label %_ZL17GetModForLRModKey8ImGuiKey.exit.i
    i32 527, label %_ZL17GetModForLRModKey8ImGuiKey.exit.i
  ]

9:                                                ; preds = %8
  %10 = and i32 %0, -61445
  switch i32 %10, label %11 [
    i32 528, label %_ZL17GetModForLRModKey8ImGuiKey.exit.i
    i32 529, label %.fold.split.i.i
  ]

11:                                               ; preds = %9
  %or.cond7.i.i = icmp eq i32 %10, 530
  %..i.i = select i1 %or.cond7.i.i, i32 32768, i32 0
  br label %_ZL17GetModForLRModKey8ImGuiKey.exit.i

.fold.split.i.i:                                  ; preds = %9
  br label %_ZL17GetModForLRModKey8ImGuiKey.exit.i

_ZL17GetModForLRModKey8ImGuiKey.exit.i:           ; preds = %.fold.split.i.i, %11, %9, %8, %8
  %.0.i.i = phi i32 [ 4096, %8 ], [ 4096, %8 ], [ 8192, %9 ], [ %..i.i, %11 ], [ 16384, %.fold.split.i.i ]
  %12 = or i32 %.0.i.i, %0
  br label %_ZN5ImGui13FixupKeyChordEi.exit

_ZN5ImGui13FixupKeyChordEi.exit:                  ; preds = %3, %_ZL17GetModForLRModKey8ImGuiKey.exit.i
  %.0.i = phi i32 [ %12, %_ZL17GetModForLRModKey8ImGuiKey.exit.i ], [ %0, %3 ]
  %13 = and i32 %.0.i, 61440
  %14 = getelementptr inbounds nuw i8, ptr %4, i64 256
  %15 = load i32, ptr %14, align 8, !tbaa !913
  %.not = icmp eq i32 %15, %13
  br i1 %.not, label %16, label %26

16:                                               ; preds = %_ZN5ImGui13FixupKeyChordEi.exit
  %17 = and i32 %.0.i, -61441
  %18 = icmp eq i32 %17, 0
  br i1 %18, label %19, label %_ZN5ImGui25ConvertSingleModFlagToKeyE8ImGuiKey.exit

19:                                               ; preds = %16
  %20 = add nsw i32 %.0.i, -4096
  %21 = lshr exact i32 %20, 12
  %22 = icmp ult i32 %20, 32768
  br i1 %22, label %switch.hole_check, label %_ZN5ImGui25ConvertSingleModFlagToKeyE8ImGuiKey.exit

switch.hole_check:                                ; preds = %19
  %switch.maskindex = trunc nuw i32 %21 to i8
  %switch.shifted = lshr i8 -117, %switch.maskindex
  %switch.lobit = trunc i8 %switch.shifted to i1
  br i1 %switch.lobit, label %switch.lookup, label %_ZN5ImGui25ConvertSingleModFlagToKeyE8ImGuiKey.exit

switch.lookup:                                    ; preds = %switch.hole_check
  %23 = zext nneg i32 %21 to i64
  %switch.gep = getelementptr inbounds nuw [8 x i32], ptr @switch.table._ZN5ImGui16DebugBreakButtonEPKcS1_, i64 0, i64 %23
  %switch.load = load i32, ptr %switch.gep, align 4
  br label %_ZN5ImGui25ConvertSingleModFlagToKeyE8ImGuiKey.exit

_ZN5ImGui25ConvertSingleModFlagToKeyE8ImGuiKey.exit: ; preds = %19, %switch.hole_check, %switch.lookup, %16
  %.0 = phi i32 [ %17, %16 ], [ %switch.load, %switch.lookup ], [ %13, %switch.hole_check ], [ %13, %19 ]
  %24 = and i32 %1, 255
  %25 = tail call noundef zeroext i1 @_ZN5ImGui12IsKeyPressedE8ImGuiKeyij(i32 noundef %.0, i32 noundef %24, i32 noundef %2)
  br label %26

26:                                               ; preds = %_ZN5ImGui13FixupKeyChordEi.exit, %_ZN5ImGui25ConvertSingleModFlagToKeyE8ImGuiKey.exit
  %.010 = phi i1 [ %25, %_ZN5ImGui25ConvertSingleModFlagToKeyE8ImGuiKey.exit ], [ false, %_ZN5ImGui13FixupKeyChordEi.exit ]
  ret i1 %.010
}